; Function Attrs: mustprogress uwtable
define dso_local void @_ZN3net19SourceAddressTokens10SharedCtorEv(ptr nocapture noundef nonnull writeonly align 8 dereferenceable(56) %this) local_unnamed_addr #1 align 2 {
entry:
  %call = tail call noundef nonnull align 8 dereferenceable(32) ptr @_ZN6google8protobuf8internal14GetEmptyStringB5cxx11Ev()
  %_cached_size_ = getelementptr inbounds i8, ptr %this, i64 28
  store i32 0, ptr %_cached_size_, align 4
  %_unknown_fields_ = getelementptr inbounds i8, ptr %this, i64 8
  %0 = load ptr, ptr @_ZN6google8protobuf8internal13empty_string_B5cxx11E, align 8
  store ptr %0, ptr %_unknown_fields_, align 8
  %_has_bits_ = getelementptr inbounds i8, ptr %this, i64 24
  store i32 0, ptr %_has_bits_, align 8
  ret void
}